; Function Attrs: nounwind uwtable
define noalias noundef ptr @Wlc_NtkCollectMemFanins(ptr noundef readonly captures(none) %0, ptr noundef readonly captures(none) %1) local_unnamed_addr #0 {
  %3 = tail call noalias dereferenceable_or_null(16) ptr @malloc(i64 noundef 16) #25
  %4 = getelementptr inbounds nuw i8, ptr %3, i64 4
  store i32 0, ptr %4, align 4, !tbaa !26
  store i32 100, ptr %3, align 8, !tbaa !25
  %5 = tail call noalias dereferenceable_or_null(400) ptr @malloc(i64 noundef 400) #25
  %6 = getelementptr inbounds nuw i8, ptr %3, i64 8
  store ptr %5, ptr %6, align 8, !tbaa !3
  %7 = getelementptr i8, ptr %1, i64 4
  %.val2439 = load i32, ptr %7, align 4, !tbaa !26
  %8 = icmp sgt i32 %.val2439, 0
  br i1 %8, label %.lr.ph41, label %.critedge

.lr.ph41:                                         ; preds = %2
  %9 = getelementptr i8, ptr %1, i64 8
  %10 = getelementptr i8, ptr %0, i64 640
  br label %11

11:                                               ; preds = %.lr.ph41, %.critedge2
  %12 = phi ptr [ %5, %.lr.ph41 ], [ %.pre.i57, %.critedge2 ]
  %.pre.i3146 = phi ptr [ %5, %.lr.ph41 ], [ %.pre.i3147, %.critedge2 ]
  %indvars.iv43 = phi i64 [ 0, %.lr.ph41 ], [ %indvars.iv.next44, %.critedge2 ]
  %.val = load ptr, ptr %9, align 8, !tbaa !3
  %13 = getelementptr inbounds nuw i32, ptr %.val, i64 %indvars.iv43
  %14 = load i32, ptr %13, align 4, !tbaa !10
  %.val22 = load ptr, ptr %10, align 8, !tbaa !11
  %15 = sext i32 %14 to i64
  %16 = getelementptr inbounds %struct.Wlc_Obj_t_, ptr %.val22, i64 %15
  %.val27 = load i16, ptr %16, align 8
  %17 = and i16 %.val27, 63
  switch i16 %17, label %.critedge2 [
    i16 8, label %18
    i16 54, label %47
    i16 55, label %47
  ]

18:                                               ; preds = %11
  %19 = getelementptr inbounds nuw i8, ptr %16, i64 4
  %20 = load i32, ptr %19, align 4, !tbaa !20
  %21 = icmp ugt i32 %20, 2
  %22 = getelementptr inbounds nuw i8, ptr %16, i64 16
  br i1 %21, label %Wlc_ObjHasArray.exit.thread.i.i, label %Wlc_ObjFaninId0.exit

Wlc_ObjHasArray.exit.thread.i.i:                  ; preds = %18
  %23 = load ptr, ptr %22, align 8, !tbaa !22
  br label %Wlc_ObjFaninId0.exit

Wlc_ObjFaninId0.exit:                             ; preds = %18, %Wlc_ObjHasArray.exit.thread.i.i
  %24 = phi ptr [ %23, %Wlc_ObjHasArray.exit.thread.i.i ], [ %22, %18 ]
  %25 = load i32, ptr %24, align 4, !tbaa !10
  %26 = load i32, ptr %4, align 4, !tbaa !26
  %27 = load i32, ptr %3, align 8, !tbaa !25
  %28 = icmp eq i32 %26, %27
  br i1 %28, label %29, label %Vec_IntPush.exit

29:                                               ; preds = %Wlc_ObjFaninId0.exit
  %30 = icmp slt i32 %26, 16
  br i1 %30, label %31, label %36

31:                                               ; preds = %29
  %.not9.i.i = icmp eq ptr %12, null
  br i1 %.not9.i.i, label %34, label %32

32:                                               ; preds = %31
  %33 = tail call dereferenceable_or_null(64) ptr @realloc(ptr noundef nonnull %12, i64 noundef 64) #27
  br label %Vec_IntPush.exit.sink.split

34:                                               ; preds = %31
  %35 = tail call noalias dereferenceable_or_null(64) ptr @malloc(i64 noundef 64) #25
  br label %Vec_IntPush.exit.sink.split

36:                                               ; preds = %29
  %37 = shl nuw nsw i32 %26, 1
  %.not9.i9.i = icmp eq ptr %12, null
  %38 = zext nneg i32 %37 to i64
  %39 = shl nuw nsw i64 %38, 2
  br i1 %.not9.i9.i, label %42, label %40

40:                                               ; preds = %36
  %41 = tail call ptr @realloc(ptr noundef nonnull %12, i64 noundef %39) #27
  br label %Vec_IntPush.exit.sink.split

42:                                               ; preds = %36
  %43 = tail call noalias ptr @malloc(i64 noundef %39) #25
  br label %Vec_IntPush.exit.sink.split

Vec_IntPush.exit.sink.split:                      ; preds = %40, %42, %32, %34
  %.sink59 = phi ptr [ %33, %32 ], [ %35, %34 ], [ %41, %40 ], [ %43, %42 ]
  %.sink = phi i32 [ 16, %32 ], [ 16, %34 ], [ %37, %40 ], [ %37, %42 ]
  store ptr %.sink59, ptr %6, align 8, !tbaa !3
  store i32 %.sink, ptr %3, align 8, !tbaa !25
  br label %Vec_IntPush.exit

Vec_IntPush.exit:                                 ; preds = %Vec_IntPush.exit.sink.split, %Wlc_ObjFaninId0.exit
  %.pre.i58 = phi ptr [ %12, %Wlc_ObjFaninId0.exit ], [ %.sink59, %Vec_IntPush.exit.sink.split ]
  %44 = add nsw i32 %26, 1
  store i32 %44, ptr %4, align 4, !tbaa !26
  %45 = sext i32 %26 to i64
  %46 = getelementptr inbounds i32, ptr %.pre.i58, i64 %45
  store i32 %25, ptr %46, align 4, !tbaa !10
  br label %.critedge2

47:                                               ; preds = %11, %11
  %48 = getelementptr i8, ptr %16, i64 4
  %.val2336 = load i32, ptr %48, align 4, !tbaa !20
  %49 = icmp sgt i32 %.val2336, 0
  br i1 %49, label %.lr.ph, label %.critedge2

.lr.ph:                                           ; preds = %47
  %50 = getelementptr inbounds nuw i8, ptr %16, i64 16
  br label %51

51:                                               ; preds = %.lr.ph, %83
  %.pre.i55 = phi ptr [ %12, %.lr.ph ], [ %.pre.i54, %83 ]
  %.val2351 = phi i32 [ %.val2336, %.lr.ph ], [ %.val23, %83 ]
  %52 = phi ptr [ %.pre.i3146, %.lr.ph ], [ %.pre.i3149, %83 ]
  %indvars.iv = phi i64 [ 0, %.lr.ph ], [ %indvars.iv.next, %83 ]
  %53 = icmp ugt i32 %.val2351, 2
  br i1 %53, label %Wlc_ObjHasArray.exit.thread.i.i28, label %54

54:                                               ; preds = %51
  %55 = load i16, ptr %16, align 8
  %56 = and i16 %55, 63
  switch i16 %56, label %Wlc_ObjFaninId.exit [
    i16 6, label %Wlc_ObjHasArray.exit.thread.i.i28
    i16 22, label %Wlc_ObjHasArray.exit.thread.i.i28
  ]

Wlc_ObjHasArray.exit.thread.i.i28:                ; preds = %54, %54, %51
  %57 = load ptr, ptr %50, align 8, !tbaa !22
  br label %Wlc_ObjFaninId.exit

Wlc_ObjFaninId.exit:                              ; preds = %54, %Wlc_ObjHasArray.exit.thread.i.i28
  %58 = phi ptr [ %57, %Wlc_ObjHasArray.exit.thread.i.i28 ], [ %50, %54 ]
  %59 = getelementptr inbounds nuw i32, ptr %58, i64 %indvars.iv
  %60 = load i32, ptr %59, align 4, !tbaa !10
  %.not = icmp eq i64 %indvars.iv, 0
  br i1 %.not, label %83, label %61

61:                                               ; preds = %Wlc_ObjFaninId.exit
  %62 = load i32, ptr %4, align 4, !tbaa !26
  %63 = load i32, ptr %3, align 8, !tbaa !25
  %64 = icmp eq i32 %62, %63
  br i1 %64, label %65, label %Vec_IntPush.exit35

65:                                               ; preds = %61
  %66 = icmp slt i32 %62, 16
  br i1 %66, label %67, label %72

67:                                               ; preds = %65
  %.not9.i.i33 = icmp eq ptr %52, null
  br i1 %.not9.i.i33, label %70, label %68

68:                                               ; preds = %67
  %69 = tail call dereferenceable_or_null(64) ptr @realloc(ptr noundef nonnull %52, i64 noundef 64) #27
  br label %Vec_IntPush.exit35.sink.split

70:                                               ; preds = %67
  %71 = tail call noalias dereferenceable_or_null(64) ptr @malloc(i64 noundef 64) #25
  br label %Vec_IntPush.exit35.sink.split

72:                                               ; preds = %65
  %73 = shl nuw nsw i32 %62, 1
  %.not9.i9.i32 = icmp eq ptr %52, null
  %74 = zext nneg i32 %73 to i64
  %75 = shl nuw nsw i64 %74, 2
  br i1 %.not9.i9.i32, label %78, label %76

76:                                               ; preds = %72
  %77 = tail call ptr @realloc(ptr noundef nonnull %52, i64 noundef %75) #27
  br label %Vec_IntPush.exit35.sink.split

78:                                               ; preds = %72
  %79 = tail call noalias ptr @malloc(i64 noundef %75) #25
  br label %Vec_IntPush.exit35.sink.split

Vec_IntPush.exit35.sink.split:                    ; preds = %76, %78, %68, %70
  %.sink61 = phi ptr [ %69, %68 ], [ %71, %70 ], [ %77, %76 ], [ %79, %78 ]
  %.sink60 = phi i32 [ 16, %68 ], [ 16, %70 ], [ %73, %76 ], [ %73, %78 ]
  store ptr %.sink61, ptr %6, align 8, !tbaa !3
  store i32 %.sink60, ptr %3, align 8, !tbaa !25
  br label %Vec_IntPush.exit35

Vec_IntPush.exit35:                               ; preds = %Vec_IntPush.exit35.sink.split, %61
  %.pre.i53 = phi ptr [ %.pre.i55, %61 ], [ %.sink61, %Vec_IntPush.exit35.sink.split ]
  %.pre.i3150 = phi ptr [ %52, %61 ], [ %.sink61, %Vec_IntPush.exit35.sink.split ]
  %80 = add nsw i32 %62, 1
  store i32 %80, ptr %4, align 4, !tbaa !26
  %81 = sext i32 %62 to i64
  %82 = getelementptr inbounds i32, ptr %.pre.i3150, i64 %81
  store i32 %60, ptr %82, align 4, !tbaa !10
  %.val23.pre = load i32, ptr %48, align 4, !tbaa !20
  br label %83

83:                                               ; preds = %Wlc_ObjFaninId.exit, %Vec_IntPush.exit35
  %.pre.i54 = phi ptr [ %.pre.i55, %Wlc_ObjFaninId.exit ], [ %.pre.i53, %Vec_IntPush.exit35 ]
  %.val23 = phi i32 [ %.val2351, %Wlc_ObjFaninId.exit ], [ %.val23.pre, %Vec_IntPush.exit35 ]
  %.pre.i3149 = phi ptr [ %52, %Wlc_ObjFaninId.exit ], [ %.pre.i3150, %Vec_IntPush.exit35 ]
  %indvars.iv.next = add nuw nsw i64 %indvars.iv, 1
  %84 = sext i32 %.val23 to i64
  %85 = icmp slt i64 %indvars.iv.next, %84
  br i1 %85, label %51, label %.critedge2, !llvm.loop !52

.critedge2:                                       ; preds = %83, %47, %11, %Vec_IntPush.exit
  %.pre.i57 = phi ptr [ %12, %47 ], [ %12, %11 ], [ %.pre.i58, %Vec_IntPush.exit ], [ %.pre.i54, %83 ]
  %.pre.i3147 = phi ptr [ %.pre.i3146, %47 ], [ %.pre.i3146, %11 ], [ %.pre.i58, %Vec_IntPush.exit ], [ %.pre.i3149, %83 ]
  %indvars.iv.next44 = add nuw nsw i64 %indvars.iv43, 1
  %.val24 = load i32, ptr %7, align 4, !tbaa !26
  %86 = sext i32 %.val24 to i64
  %87 = icmp slt i64 %indvars.iv.next44, %86
  br i1 %87, label %11, label %.critedge, !llvm.loop !53

.critedge:                                        ; preds = %.critedge2, %2
  ret ptr %3
}